target datalayout = "e-m:e-p270:32:32-p271:32:32-p272:64:64-i64:64-i128:128-f80:128-n8:16:32:64-S128"
target triple = "x86_64-pc-linux-gnu"

%struct.hashether = type { i8, [6 x i8], [18 x i8], [64 x i8] }

@addr_resolv_scope = internal global ptr null, align 8
@eth_hashtable = internal global ptr null, align 8

; Function Attrs: alwaysinline nounwind
define internal ptr @memcpy.inline(ptr noalias %0, ptr noalias %1, i64 %2) #8 {
  %4 = alloca ptr, align 8
  %5 = alloca ptr, align 8
  %6 = alloca i64, align 8
  store ptr %0, ptr %4, align 8
  store ptr %1, ptr %5, align 8
  store i64 %2, ptr %6, align 8
  %7 = load ptr, ptr %4, align 8
  %8 = load ptr, ptr %5, align 8
  %9 = load i64, ptr %6, align 8
  %10 = load ptr, ptr %4, align 8
  %11 = call i64 @llvm.objectsize.i64.p0(ptr %10, i1 false, i1 true, i1 true)
  %12 = call ptr @__memcpy_chk(ptr noundef %7, ptr noundef %8, i64 noundef %9, i64 noundef %11) #16
  ret ptr %12
}

; Function Attrs: null_pointer_is_valid sspstrong uwtable
define internal ptr @eth_hash_new_entry(ptr noundef %0, i1 noundef zeroext %1) #3 {
  %3 = alloca ptr, align 8
  %4 = alloca i8, align 1
  %5 = alloca ptr, align 8
  %6 = alloca ptr, align 8
  store ptr %0, ptr %3, align 8
  %7 = zext i1 %1 to i8
  store i8 %7, ptr %4, align 1
  call void @llvm.lifetime.start.p0(i64 8, ptr %5) #16
  call void @llvm.lifetime.start.p0(i64 8, ptr %6) #16
  %8 = load ptr, ptr @addr_resolv_scope, align 8
  %9 = call noalias ptr @wmem_alloc(ptr noundef %8, i64 noundef 89) #19
  store ptr %9, ptr %5, align 8
  %10 = load ptr, ptr %5, align 8
  %11 = getelementptr inbounds nuw %struct.hashether, ptr %10, i32 0, i32 1
  %12 = getelementptr inbounds [6 x i8], ptr %11, i64 0, i64 0
  %13 = load ptr, ptr %3, align 8
  %14 = call ptr @memcpy.inline(ptr noundef %12, ptr noundef %13, i64 noundef 6) #16
  %15 = load ptr, ptr %5, align 8
  %16 = getelementptr inbounds nuw %struct.hashether, ptr %15, i32 0, i32 0
  store i8 0, ptr %16, align 1
  %17 = load ptr, ptr %5, align 8
  %18 = getelementptr inbounds nuw %struct.hashether, ptr %17, i32 0, i32 2
  %19 = getelementptr inbounds [18 x i8], ptr %18, i64 0, i64 0
  %20 = load ptr, ptr %3, align 8
  %21 = call ptr @bytes_to_hexstr_punct(ptr noundef %19, ptr noundef %20, i64 noundef 6, i8 noundef signext 58)
  store ptr %21, ptr %6, align 8
  %22 = load ptr, ptr %6, align 8
  store i8 0, ptr %22, align 1
  %23 = load ptr, ptr %5, align 8
  %24 = getelementptr inbounds nuw %struct.hashether, ptr %23, i32 0, i32 3
  %25 = getelementptr [64 x i8], ptr %24, i64 0, i64 0
  store i8 0, ptr %25, align 1
  %26 = load i8, ptr %4, align 1, !range !8, !noundef !9
  %27 = trunc i8 %26 to i1
  br i1 %27, label %28, label %31

28:                                               ; preds = %2
  %29 = load ptr, ptr %5, align 8
  %30 = call ptr @eth_addr_resolve(ptr noundef %29)
  br label %31

31:                                               ; preds = %28, %2
  %32 = load ptr, ptr @eth_hashtable, align 8
  %33 = load ptr, ptr %5, align 8
  %34 = getelementptr inbounds nuw %struct.hashether, ptr %33, i32 0, i32 1
  %35 = getelementptr inbounds [6 x i8], ptr %34, i64 0, i64 0
  %36 = load ptr, ptr %5, align 8
  %37 = call ptr @wmem_map_insert(ptr noundef %32, ptr noundef %35, ptr noundef %36)
  %38 = load ptr, ptr %5, align 8
  call void @llvm.lifetime.end.p0(i64 8, ptr %6) #16
  call void @llvm.lifetime.end.p0(i64 8, ptr %5) #16
  ret ptr %38
}

; Function Attrs: null_pointer_is_valid sspstrong uwtable
define internal ptr @eth_name_lookup(ptr noundef %0, i1 noundef zeroext %1) #3 {
  %3 = alloca ptr, align 8
  %4 = alloca i8, align 1
  %5 = alloca ptr, align 8
  store ptr %0, ptr %3, align 8
  %6 = zext i1 %1 to i8
  store i8 %6, ptr %4, align 1
  call void @llvm.lifetime.start.p0(i64 8, ptr %5) #16
  %7 = load ptr, ptr @eth_hashtable, align 8
  %8 = load ptr, ptr %3, align 8
  %9 = call ptr @wmem_map_lookup(ptr noundef %7, ptr noundef %8)
  store ptr %9, ptr %5, align 8
  %10 = load ptr, ptr %5, align 8
  %11 = icmp eq ptr %10, null
  br i1 %11, label %12, label %17

12:                                               ; preds = %2
  %13 = load ptr, ptr %3, align 8
  %14 = load i8, ptr %4, align 1, !range !8, !noundef !9
  %15 = trunc i8 %14 to i1
  %16 = call ptr @eth_hash_new_entry(ptr noundef %13, i1 noundef zeroext %15)
  store ptr %16, ptr %5, align 8
  br label %31

17:                                               ; preds = %2
  %18 = load i8, ptr %4, align 1, !range !8, !noundef !9
  %19 = trunc i8 %18 to i1
  br i1 %19, label %20, label %30

20:                                               ; preds = %17
  %21 = load ptr, ptr %5, align 8
  %22 = getelementptr inbounds nuw %struct.hashether, ptr %21, i32 0, i32 0
  %23 = load i8, ptr %22, align 1
  %24 = zext i8 %23 to i32
  %25 = and i32 %24, 3
  %26 = icmp ne i32 %25, 0
  br i1 %26, label %30, label %27

27:                                               ; preds = %20
  %28 = load ptr, ptr %5, align 8
  %29 = call ptr @eth_addr_resolve(ptr noundef %28)
  br label %30

30:                                               ; preds = %27, %20, %17
  br label %31

31:                                               ; preds = %30, %12
  %32 = load i8, ptr %4, align 1, !range !8, !noundef !9
  %33 = trunc i8 %32 to i1
  br i1 %33, label %34, label %41

34:                                               ; preds = %31
  %35 = load ptr, ptr %5, align 8
  %36 = getelementptr inbounds nuw %struct.hashether, ptr %35, i32 0, i32 0
  %37 = load i8, ptr %36, align 1
  %38 = zext i8 %37 to i32
  %39 = or i32 %38, 1
  %40 = trunc i32 %39 to i8
  store i8 %40, ptr %36, align 1
  br label %41

41:                                               ; preds = %34, %31
  %42 = load ptr, ptr %5, align 8
  call void @llvm.lifetime.end.p0(i64 8, ptr %5) #16
  ret ptr %42
}