; Function Attrs: null_pointer_is_valid sspstrong uwtable
define internal fastcc ptr @eth_name_lookup(ptr noundef %0, i1 noundef zeroext %1) unnamed_addr #3 {
  %3 = load ptr, ptr @eth_hashtable, align 8
  %4 = tail call ptr @wmem_map_lookup(ptr noundef %3, ptr noundef %0)
  %5 = icmp eq ptr %4, null
  br i1 %5, label %6, label %16

6:                                                ; preds = %2
  %7 = load ptr, ptr @addr_resolv_scope, align 8
  %8 = tail call noalias dereferenceable_or_null(89) ptr @wmem_alloc(ptr noundef %7, i64 noundef 89) #26
  %9 = getelementptr inbounds nuw i8, ptr %8, i64 1
  tail call void @llvm.memcpy.p0.p0.i64(ptr noundef nonnull align 1 dereferenceable(6) %9, ptr noundef align 1 dereferenceable(6) %0, i64 noundef 6, i1 noundef false) #24
  store i8 0, ptr %8, align 1
  %10 = getelementptr inbounds nuw i8, ptr %8, i64 7
  %11 = tail call ptr @bytes_to_hexstr_punct(ptr noundef nonnull %10, ptr noundef %0, i64 noundef 6, i8 noundef signext 58)
  store i8 0, ptr %11, align 1
  %12 = getelementptr inbounds nuw i8, ptr %8, i64 25
  store i8 0, ptr %12, align 1
  br i1 %1, label %.thread15, label %22

.thread15:                                        ; preds = %6
  %13 = tail call fastcc ptr @eth_addr_resolve(ptr noundef %8)
  %14 = load ptr, ptr @eth_hashtable, align 8
  %15 = tail call ptr @wmem_map_insert(ptr noundef %14, ptr noundef nonnull %9, ptr noundef %8)
  br label %.thread

16:                                               ; preds = %2
  br i1 %1, label %17, label %.thread13

17:                                               ; preds = %16
  %18 = load i8, ptr %4, align 1
  %19 = and i8 %18, 3
  %.not = icmp eq i8 %19, 0
  br i1 %.not, label %20, label %.thread

20:                                               ; preds = %17
  %21 = tail call fastcc ptr @eth_addr_resolve(ptr noundef nonnull %4)
  br label %.thread

22:                                               ; preds = %6
  %23 = load ptr, ptr @eth_hashtable, align 8
  %24 = tail call ptr @wmem_map_insert(ptr noundef %23, ptr noundef nonnull %9, ptr noundef %8)
  br label %.thread13

.thread:                                          ; preds = %20, %17, %.thread15
  %.012 = phi ptr [ %8, %.thread15 ], [ %4, %17 ], [ %4, %20 ]
  %25 = load i8, ptr %.012, align 1
  %26 = or i8 %25, 1
  store i8 %26, ptr %.012, align 1
  br label %.thread13

.thread13:                                        ; preds = %16, %22, %.thread
  %.011 = phi ptr [ %.012, %.thread ], [ %8, %22 ], [ %4, %16 ]
  ret ptr %.011
}